; Function Attrs: mustprogress uwtable
define hidden noundef zeroext i1 @_ZNK4cvc58internal6theory11quantifiers19QuantifiersRegistry15getNameForQuantENS0_12NodeTemplateILb1EEERS5_b(ptr noundef nonnull align 8 dereferenceable(488) %this, ptr nocapture noundef readonly %q, ptr nocapture noundef nonnull align 8 dereferenceable(8) %name, i1 noundef zeroext %req) local_unnamed_addr #3 align 2 personality ptr @__gxx_personality_v0 {
entry:
  %ref.tmp = alloca %"class.cvc5::internal::NodeTemplate", align 8
  %agg.tmp = alloca %"class.cvc5::internal::NodeTemplate", align 8
  %0 = load ptr, ptr %q, align 8
  store ptr %0, ptr %agg.tmp, align 8
  %bf.load.i.i = load i64, ptr %0, align 8
  %bf.lshr.i.i = lshr i64 %bf.load.i.i, 40
  %1 = trunc i64 %bf.lshr.i.i to i32
  %bf.cast.i.i = and i32 %1, 1048575
  %cmp.i.i = icmp ult i32 %bf.cast.i.i, 1048574
  br i1 %cmp.i.i, label %if.then.i.i, label %if.else.i.i

if.then.i.i:                                      ; preds = %entry
  %bf.value.i.i = add i64 %bf.load.i.i, 1099511627776
  %bf.shl.i.i = and i64 %bf.value.i.i, 1152920405095219200
  %bf.clear7.i.i = and i64 %bf.load.i.i, -1152920405095219201
  %bf.set.i.i = or disjoint i64 %bf.shl.i.i, %bf.clear7.i.i
  store i64 %bf.set.i.i, ptr %0, align 8
  br label %_ZN4cvc58internal12NodeTemplateILb1EEC2ERKS2_.exit

if.else.i.i:                                      ; preds = %entry
  %cmp12.i.i = icmp eq i32 %bf.cast.i.i, 1048574
  br i1 %cmp12.i.i, label %if.then13.i.i, label %_ZN4cvc58internal12NodeTemplateILb1EEC2ERKS2_.exit

if.then13.i.i:                                    ; preds = %if.else.i.i
  %bf.set23.i.i = or i64 %bf.load.i.i, 1152920405095219200
  store i64 %bf.set23.i.i, ptr %0, align 8
  tail call void @_ZN4cvc58internal4expr9NodeValue20markRefCountMaxedOutEv(ptr noundef nonnull align 8 dereferenceable(16) %0)
  br label %_ZN4cvc58internal12NodeTemplateILb1EEC2ERKS2_.exit

_ZN4cvc58internal12NodeTemplateILb1EEC2ERKS2_.exit: ; preds = %if.then.i.i, %if.else.i.i, %if.then13.i.i
  invoke void @_ZNK4cvc58internal6theory11quantifiers19QuantifiersRegistry15getNameForQuantENS0_12NodeTemplateILb1EEE(ptr nonnull sret(%"class.cvc5::internal::NodeTemplate") align 8 %ref.tmp, ptr noundef nonnull align 8 dereferenceable(488) %this, ptr noundef nonnull %agg.tmp)
          to label %invoke.cont unwind label %lpad

invoke.cont:                                      ; preds = %_ZN4cvc58internal12NodeTemplateILb1EEC2ERKS2_.exit
  %2 = load ptr, ptr %name, align 8
  %3 = load ptr, ptr %ref.tmp, align 8
  %cmp.not.i = icmp eq ptr %2, %3
  br i1 %cmp.not.i, label %invoke.cont3, label %if.then.i

if.then.i:                                        ; preds = %invoke.cont
  %bf.load.i.i3 = load i64, ptr %2, align 8
  %4 = and i64 %bf.load.i.i3, 1152920405095219200
  %cmp.not.i.i = icmp eq i64 %4, 1152920405095219200
  br i1 %cmp.not.i.i, label %_ZN4cvc58internal4expr9NodeValue3decEv.exit.i, label %if.then.i.i4

if.then.i.i4:                                     ; preds = %if.then.i
  %bf.value.i.i5 = add i64 %bf.load.i.i3, 1152920405095219200
  %bf.shl.i.i6 = and i64 %bf.value.i.i5, 1152920405095219200
  %bf.clear7.i.i7 = and i64 %bf.load.i.i3, -1152920405095219201
  %bf.set.i.i8 = or disjoint i64 %bf.shl.i.i6, %bf.clear7.i.i7
  store i64 %bf.set.i.i8, ptr %2, align 8
  %cmp12.i.i9 = icmp eq i64 %bf.shl.i.i6, 0
  br i1 %cmp12.i.i9, label %if.then13.i.i15, label %_ZN4cvc58internal4expr9NodeValue3decEv.exit.i

if.then13.i.i15:                                  ; preds = %if.then.i.i4
  invoke void @_ZN4cvc58internal4expr9NodeValue15markForDeletionEv(ptr noundef nonnull align 8 dereferenceable(16) %2)
          to label %_ZN4cvc58internal4expr9NodeValue3decEv.exit.i unwind label %lpad2

_ZN4cvc58internal4expr9NodeValue3decEv.exit.i:    ; preds = %if.then13.i.i15, %if.then.i.i4, %if.then.i
  store ptr %3, ptr %name, align 8
  %bf.load.i2.i = load i64, ptr %3, align 8
  %bf.lshr.i.i10 = lshr i64 %bf.load.i2.i, 40
  %5 = trunc i64 %bf.lshr.i.i10 to i32
  %bf.cast.i.i11 = and i32 %5, 1048575
  %cmp.i.i12 = icmp ult i32 %bf.cast.i.i11, 1048574
  br i1 %cmp.i.i12, label %if.then.i5.i, label %if.else.i.i13

if.then.i5.i:                                     ; preds = %_ZN4cvc58internal4expr9NodeValue3decEv.exit.i
  %bf.value.i6.i = add i64 %bf.load.i2.i, 1099511627776
  %bf.shl.i7.i = and i64 %bf.value.i6.i, 1152920405095219200
  %bf.clear7.i8.i = and i64 %bf.load.i2.i, -1152920405095219201
  %bf.set.i9.i = or disjoint i64 %bf.shl.i7.i, %bf.clear7.i8.i
  store i64 %bf.set.i9.i, ptr %3, align 8
  br label %invoke.cont3

if.else.i.i13:                                    ; preds = %_ZN4cvc58internal4expr9NodeValue3decEv.exit.i
  %cmp12.i3.i = icmp eq i32 %bf.cast.i.i11, 1048574
  br i1 %cmp12.i3.i, label %if.then13.i4.i, label %invoke.cont3

if.then13.i4.i:                                   ; preds = %if.else.i.i13
  %bf.set23.i.i14 = or i64 %bf.load.i2.i, 1152920405095219200
  store i64 %bf.set23.i.i14, ptr %3, align 8
  invoke void @_ZN4cvc58internal4expr9NodeValue20markRefCountMaxedOutEv(ptr noundef nonnull align 8 dereferenceable(16) %3)
          to label %invoke.cont3 unwind label %lpad2

invoke.cont3:                                     ; preds = %if.else.i.i13, %if.then.i5.i, %invoke.cont, %if.then13.i4.i
  %bf.load.i.i17 = load i64, ptr %3, align 8
  %6 = and i64 %bf.load.i.i17, 1152920405095219200
  %cmp.not.i.i18 = icmp eq i64 %6, 1152920405095219200
  br i1 %cmp.not.i.i18, label %_ZN4cvc58internal12NodeTemplateILb1EED2Ev.exit, label %if.then.i.i19

if.then.i.i19:                                    ; preds = %invoke.cont3
  %bf.value.i.i20 = add i64 %bf.load.i.i17, 1152920405095219200
  %bf.shl.i.i21 = and i64 %bf.value.i.i20, 1152920405095219200
  %bf.clear7.i.i22 = and i64 %bf.load.i.i17, -1152920405095219201
  %bf.set.i.i23 = or disjoint i64 %bf.shl.i.i21, %bf.clear7.i.i22
  store i64 %bf.set.i.i23, ptr %3, align 8
  %cmp12.i.i24 = icmp eq i64 %bf.shl.i.i21, 0
  br i1 %cmp12.i.i24, label %if.then13.i.i25, label %_ZN4cvc58internal12NodeTemplateILb1EED2Ev.exit

if.then13.i.i25:                                  ; preds = %if.then.i.i19
  invoke void @_ZN4cvc58internal4expr9NodeValue15markForDeletionEv(ptr noundef nonnull align 8 dereferenceable(16) %3)
          to label %_ZN4cvc58internal12NodeTemplateILb1EED2Ev.exit unwind label %terminate.lpad.i

terminate.lpad.i:                                 ; preds = %if.then13.i.i25
  %7 = landingpad { ptr, i32 }
          catch ptr null
  %8 = extractvalue { ptr, i32 } %7, 0
  tail call void @__clang_call_terminate(ptr %8) #20
  unreachable

_ZN4cvc58internal12NodeTemplateILb1EED2Ev.exit:   ; preds = %invoke.cont3, %if.then.i.i19, %if.then13.i.i25
  %bf.load.i.i26 = load i64, ptr %0, align 8
  %9 = and i64 %bf.load.i.i26, 1152920405095219200
  %cmp.not.i.i27 = icmp eq i64 %9, 1152920405095219200
  br i1 %cmp.not.i.i27, label %_ZN4cvc58internal12NodeTemplateILb1EED2Ev.exit36, label %if.then.i.i28

if.then.i.i28:                                    ; preds = %_ZN4cvc58internal12NodeTemplateILb1EED2Ev.exit
  %bf.value.i.i29 = add i64 %bf.load.i.i26, 1152920405095219200
  %bf.shl.i.i30 = and i64 %bf.value.i.i29, 1152920405095219200
  %bf.clear7.i.i31 = and i64 %bf.load.i.i26, -1152920405095219201
  %bf.set.i.i32 = or disjoint i64 %bf.shl.i.i30, %bf.clear7.i.i31
  store i64 %bf.set.i.i32, ptr %0, align 8
  %cmp12.i.i33 = icmp eq i64 %bf.shl.i.i30, 0
  br i1 %cmp12.i.i33, label %if.then13.i.i34, label %_ZN4cvc58internal12NodeTemplateILb1EED2Ev.exit36

if.then13.i.i34:                                  ; preds = %if.then.i.i28
  invoke void @_ZN4cvc58internal4expr9NodeValue15markForDeletionEv(ptr noundef nonnull align 8 dereferenceable(16) %0)
          to label %_ZN4cvc58internal12NodeTemplateILb1EED2Ev.exit36 unwind label %terminate.lpad.i35

terminate.lpad.i35:                               ; preds = %if.then13.i.i34
  %10 = landingpad { ptr, i32 }
          catch ptr null
  %11 = extractvalue { ptr, i32 } %10, 0
  tail call void @__clang_call_terminate(ptr %11) #20
  unreachable

_ZN4cvc58internal12NodeTemplateILb1EED2Ev.exit36: ; preds = %_ZN4cvc58internal12NodeTemplateILb1EED2Ev.exit, %if.then.i.i28, %if.then13.i.i34
  %12 = load ptr, ptr %name, align 8
  %13 = load ptr, ptr %q, align 8
  %cmp.i = icmp ne ptr %12, %13
  %lnot = xor i1 %req, true
  %14 = or i1 %cmp.i, %lnot
  ret i1 %14

lpad:                                             ; preds = %_ZN4cvc58internal12NodeTemplateILb1EEC2ERKS2_.exit
  %15 = landingpad { ptr, i32 }
          cleanup
  br label %ehcleanup

lpad2:                                            ; preds = %if.then13.i4.i, %if.then13.i.i15
  %16 = landingpad { ptr, i32 }
          cleanup
  call void @_ZN4cvc58internal12NodeTemplateILb1EED2Ev(ptr noundef nonnull align 8 dereferenceable(8) %ref.tmp) #19
  br label %ehcleanup

ehcleanup:                                        ; preds = %lpad2, %lpad
  %.pn = phi { ptr, i32 } [ %16, %lpad2 ], [ %15, %lpad ]
  call void @_ZN4cvc58internal12NodeTemplateILb1EED2Ev(ptr noundef nonnull align 8 dereferenceable(8) %agg.tmp) #19
  resume { ptr, i32 } %.pn
}